target datalayout = "e-m:e-p270:32:32-p271:32:32-p272:64:64-i64:64-i128:128-f80:128-n8:16:32:64-S128"
target triple = "x86_64-pc-linux-gnu"

%struct.H5O_loc_t = type { ptr, i64, i8 }
%struct.H5G_name_t = type { ptr, ptr, i32 }
%struct.H5G_loc_t = type { ptr, ptr }

@H5D_init_g = external global i8, align 1
@H5_libterm_g = external global i8, align 1
@.str.2 = private unnamed_addr constant [100 x i8] c"generated/home/dtcxzyw/WorkSpace/Projects/compilers/llvm-opt-benchmark/bench/hdf5/hdf5/src/H5Dint.c\00", align 1
@H5E_CANTINIT_g = external global i64, align 8
@H5E_DATASET_g = external global i64, align 8
@H5E_BADTYPE_g = external global i64, align 8
@H5E_CANTGET_g = external global i64, align 8
@H5E_CANTRELEASE_g = external global i64, align 8
@__func__.H5D__open_name = private unnamed_addr constant [15 x i8] c"H5D__open_name\00", align 1
@H5E_NOTFOUND_g = external global i64, align 8
@.str.55 = private unnamed_addr constant [10 x i8] c"not found\00", align 1
@.str.56 = private unnamed_addr constant [22 x i8] c"can't get object type\00", align 1
@.str.57 = private unnamed_addr constant [14 x i8] c"not a dataset\00", align 1
@.str.58 = private unnamed_addr constant [19 x i8] c"can't open dataset\00", align 1
@.str.59 = private unnamed_addr constant [20 x i8] c"can't free location\00", align 1

; Function Attrs: nounwind uwtable
define ptr @H5D__open_name(ptr noundef %0, ptr noundef %1, i64 noundef %2) #0 {
  %4 = alloca ptr, align 8
  %5 = alloca ptr, align 8
  %6 = alloca i64, align 8
  %7 = alloca ptr, align 8
  %8 = alloca %struct.H5G_loc_t, align 8
  %9 = alloca %struct.H5G_name_t, align 8
  %10 = alloca %struct.H5O_loc_t, align 8
  %11 = alloca i32, align 4
  %12 = alloca i8, align 1
  %13 = alloca ptr, align 8
  %14 = alloca i8, align 1
  store ptr %0, ptr %4, align 8, !tbaa !46
  store ptr %1, ptr %5, align 8, !tbaa !45
  store i64 %2, ptr %6, align 8, !tbaa !11
  call void @llvm.lifetime.start.p0(i64 8, ptr %7) #12
  store ptr null, ptr %7, align 8, !tbaa !49
  call void @llvm.lifetime.start.p0(i64 16, ptr %8) #12
  call void @llvm.lifetime.start.p0(i64 24, ptr %9) #12
  call void @llvm.lifetime.start.p0(i64 24, ptr %10) #12
  call void @llvm.lifetime.start.p0(i64 4, ptr %11) #12
  call void @llvm.lifetime.start.p0(i64 1, ptr %12) #12
  store i8 0, ptr %12, align 1, !tbaa !7
  call void @llvm.lifetime.start.p0(i64 8, ptr %13) #12
  store ptr null, ptr %13, align 8, !tbaa !49
  call void @llvm.lifetime.start.p0(i64 1, ptr %14) #12
  store i8 0, ptr %14, align 1, !tbaa !7
  %15 = load i8, ptr @H5D_init_g, align 1, !tbaa !7, !range !9, !noundef !10
  %16 = trunc i8 %15 to i1
  br i1 %16, label %21, label %17

17:                                               ; preds = %3
  %18 = load i8, ptr @H5_libterm_g, align 1, !tbaa !7, !range !9, !noundef !10
  %19 = trunc i8 %18 to i1
  %20 = xor i1 %19, true
  br label %21

21:                                               ; preds = %17, %3
  %22 = phi i1 [ true, %3 ], [ %20, %17 ]
  %23 = xor i1 %22, true
  %24 = xor i1 %23, true
  %25 = zext i1 %24 to i32
  %26 = sext i32 %25 to i64
  %27 = call i64 @llvm.expect.i64(i64 %26, i64 1)
  %28 = icmp ne i64 %27, 0
  br i1 %28, label %29, label %152

29:                                               ; preds = %21
  %30 = getelementptr inbounds nuw %struct.H5G_loc_t, ptr %8, i32 0, i32 0
  store ptr %10, ptr %30, align 8, !tbaa !75
  %31 = getelementptr inbounds nuw %struct.H5G_loc_t, ptr %8, i32 0, i32 1
  store ptr %9, ptr %31, align 8, !tbaa !79
  %32 = call i32 @H5G_loc_reset(ptr noundef %8)
  %33 = load ptr, ptr %4, align 8, !tbaa !46
  %34 = load ptr, ptr %5, align 8, !tbaa !45
  %35 = call i32 @H5G_loc_find(ptr noundef %33, ptr noundef %34, ptr noundef %8)
  %36 = icmp slt i32 %35, 0
  br i1 %36, label %37, label %56

37:                                               ; preds = %29
  br label %38

38:                                               ; preds = %37
  br label %39

39:                                               ; preds = %38
  br label %40

40:                                               ; preds = %39
  %41 = load i64, ptr @H5E_DATASET_g, align 8, !tbaa !11
  %42 = load i64, ptr @H5E_NOTFOUND_g, align 8, !tbaa !11
  %43 = call i32 (ptr, ptr, i32, i64, i64, ptr, ...) @H5E_printf_stack(ptr noundef @.str.2, ptr noundef @__func__.H5D__open_name, i32 noundef 1472, i64 noundef %41, i64 noundef %42, ptr noundef @.str.55)
  br label %44

44:                                               ; preds = %40
  br label %45

45:                                               ; preds = %44
  store i8 1, ptr %14, align 1, !tbaa !7
  %46 = load i8, ptr %14, align 1, !tbaa !7, !range !9, !noundef !10
  %47 = trunc i8 %46 to i1
  %48 = zext i1 %47 to i8
  store i8 %48, ptr %14, align 1, !tbaa !7
  br label %49

49:                                               ; preds = %45
  br label %50

50:                                               ; preds = %49
  br label %51

51:                                               ; preds = %50
  store ptr null, ptr %13, align 8, !tbaa !49
  br label %125

52:                                               ; No predecessors!
  br label %53

53:                                               ; preds = %52
  br label %54

54:                                               ; preds = %53
  br label %55

55:                                               ; preds = %54
  br label %56

56:                                               ; preds = %55, %29
  store i8 1, ptr %12, align 1, !tbaa !7
  %57 = call i32 @H5O_obj_type(ptr noundef %10, ptr noundef %11)
  %58 = icmp slt i32 %57, 0
  br i1 %58, label %59, label %78

59:                                               ; preds = %56
  br label %60

60:                                               ; preds = %59
  br label %61

61:                                               ; preds = %60
  br label %62

62:                                               ; preds = %61
  %63 = load i64, ptr @H5E_DATASET_g, align 8, !tbaa !11
  %64 = load i64, ptr @H5E_CANTGET_g, align 8, !tbaa !11
  %65 = call i32 (ptr, ptr, i32, i64, i64, ptr, ...) @H5E_printf_stack(ptr noundef @.str.2, ptr noundef @__func__.H5D__open_name, i32 noundef 1477, i64 noundef %63, i64 noundef %64, ptr noundef @.str.56)
  br label %66

66:                                               ; preds = %62
  br label %67

67:                                               ; preds = %66
  store i8 1, ptr %14, align 1, !tbaa !7
  %68 = load i8, ptr %14, align 1, !tbaa !7, !range !9, !noundef !10
  %69 = trunc i8 %68 to i1
  %70 = zext i1 %69 to i8
  store i8 %70, ptr %14, align 1, !tbaa !7
  br label %71

71:                                               ; preds = %67
  br label %72

72:                                               ; preds = %71
  br label %73

73:                                               ; preds = %72
  store ptr null, ptr %13, align 8, !tbaa !49
  br label %125

74:                                               ; No predecessors!
  br label %75

75:                                               ; preds = %74
  br label %76

76:                                               ; preds = %75
  br label %77

77:                                               ; preds = %76
  br label %78

78:                                               ; preds = %77, %56
  %79 = load i32, ptr %11, align 4, !tbaa !3
  %80 = icmp ne i32 %79, 1
  br i1 %80, label %81, label %100

81:                                               ; preds = %78
  br label %82

82:                                               ; preds = %81
  br label %83

83:                                               ; preds = %82
  br label %84

84:                                               ; preds = %83
  %85 = load i64, ptr @H5E_DATASET_g, align 8, !tbaa !11
  %86 = load i64, ptr @H5E_BADTYPE_g, align 8, !tbaa !11
  %87 = call i32 (ptr, ptr, i32, i64, i64, ptr, ...) @H5E_printf_stack(ptr noundef @.str.2, ptr noundef @__func__.H5D__open_name, i32 noundef 1479, i64 noundef %85, i64 noundef %86, ptr noundef @.str.57)
  br label %88

88:                                               ; preds = %84
  br label %89

89:                                               ; preds = %88
  store i8 1, ptr %14, align 1, !tbaa !7
  %90 = load i8, ptr %14, align 1, !tbaa !7, !range !9, !noundef !10
  %91 = trunc i8 %90 to i1
  %92 = zext i1 %91 to i8
  store i8 %92, ptr %14, align 1, !tbaa !7
  br label %93

93:                                               ; preds = %89
  br label %94

94:                                               ; preds = %93
  br label %95

95:                                               ; preds = %94
  store ptr null, ptr %13, align 8, !tbaa !49
  br label %125

96:                                               ; No predecessors!
  br label %97

97:                                               ; preds = %96
  br label %98

98:                                               ; preds = %97
  br label %99

99:                                               ; preds = %98
  br label %100

100:                                              ; preds = %99, %78
  %101 = load i64, ptr %6, align 8, !tbaa !11
  %102 = call ptr @H5D_open(ptr noundef %8, i64 noundef %101)
  store ptr %102, ptr %7, align 8, !tbaa !49
  %103 = icmp eq ptr null, %102
  br i1 %103, label %104, label %123

104:                                              ; preds = %100
  br label %105

105:                                              ; preds = %104
  br label %106

106:                                              ; preds = %105
  br label %107

107:                                              ; preds = %106
  %108 = load i64, ptr @H5E_DATASET_g, align 8, !tbaa !11
  %109 = load i64, ptr @H5E_CANTINIT_g, align 8, !tbaa !11
  %110 = call i32 (ptr, ptr, i32, i64, i64, ptr, ...) @H5E_printf_stack(ptr noundef @.str.2, ptr noundef @__func__.H5D__open_name, i32 noundef 1483, i64 noundef %108, i64 noundef %109, ptr noundef @.str.58)
  br label %111

111:                                              ; preds = %107
  br label %112

112:                                              ; preds = %111
  store i8 1, ptr %14, align 1, !tbaa !7
  %113 = load i8, ptr %14, align 1, !tbaa !7, !range !9, !noundef !10
  %114 = trunc i8 %113 to i1
  %115 = zext i1 %114 to i8
  store i8 %115, ptr %14, align 1, !tbaa !7
  br label %116

116:                                              ; preds = %112
  br label %117

117:                                              ; preds = %116
  br label %118

118:                                              ; preds = %117
  store ptr null, ptr %13, align 8, !tbaa !49
  br label %125

119:                                              ; No predecessors!
  br label %120

120:                                              ; preds = %119
  br label %121

121:                                              ; preds = %120
  br label %122

122:                                              ; preds = %121
  br label %123

123:                                              ; preds = %122, %100
  %124 = load ptr, ptr %7, align 8, !tbaa !49
  store ptr %124, ptr %13, align 8, !tbaa !49
  br label %125

125:                                              ; preds = %123, %118, %95, %73, %51
  %126 = load ptr, ptr %13, align 8, !tbaa !49
  %127 = icmp ne ptr %126, null
  br i1 %127, label %151, label %128

128:                                              ; preds = %125
  %129 = load i8, ptr %12, align 1, !tbaa !7, !range !9, !noundef !10
  %130 = trunc i8 %129 to i1
  br i1 %130, label %131, label %150

131:                                              ; preds = %128
  %132 = call i32 @H5G_loc_free(ptr noundef %8)
  %133 = icmp slt i32 %132, 0
  br i1 %133, label %134, label %150

134:                                              ; preds = %131
  br label %135

135:                                              ; preds = %134
  br label %136

136:                                              ; preds = %135
  br label %137

137:                                              ; preds = %136
  %138 = load i64, ptr @H5E_DATASET_g, align 8, !tbaa !11
  %139 = load i64, ptr @H5E_CANTRELEASE_g, align 8, !tbaa !11
  %140 = call i32 (ptr, ptr, i32, i64, i64, ptr, ...) @H5E_printf_stack(ptr noundef @.str.2, ptr noundef @__func__.H5D__open_name, i32 noundef 1491, i64 noundef %138, i64 noundef %139, ptr noundef @.str.59)
  br label %141

141:                                              ; preds = %137
  br label %142

142:                                              ; preds = %141
  store i8 1, ptr %14, align 1, !tbaa !7
  %143 = load i8, ptr %14, align 1, !tbaa !7, !range !9, !noundef !10
  %144 = trunc i8 %143 to i1
  %145 = zext i1 %144 to i8
  store i8 %145, ptr %14, align 1, !tbaa !7
  br label %146

146:                                              ; preds = %142
  br label %147

147:                                              ; preds = %146
  store ptr null, ptr %13, align 8, !tbaa !49
  br label %148

148:                                              ; preds = %147
  br label %149

149:                                              ; preds = %148
  br label %150

150:                                              ; preds = %149, %131, %128
  br label %151

151:                                              ; preds = %150, %125
  br label %152

152:                                              ; preds = %151, %21
  %153 = load ptr, ptr %13, align 8, !tbaa !49
  call void @llvm.lifetime.end.p0(i64 1, ptr %14) #12
  call void @llvm.lifetime.end.p0(i64 8, ptr %13) #12
  call void @llvm.lifetime.end.p0(i64 1, ptr %12) #12
  call void @llvm.lifetime.end.p0(i64 4, ptr %11) #12
  call void @llvm.lifetime.end.p0(i64 24, ptr %10) #12
  call void @llvm.lifetime.end.p0(i64 24, ptr %9) #12
  call void @llvm.lifetime.end.p0(i64 16, ptr %8) #12
  call void @llvm.lifetime.end.p0(i64 8, ptr %7) #12
  ret ptr %153
}