; Function Attrs: nounwind uwtable
define ptr @H5D__open_name(ptr noundef %0, ptr noundef %1, i64 noundef %2) local_unnamed_addr #0 {
  %4 = alloca %struct.H5G_loc_t, align 8
  %5 = alloca %struct.H5G_name_t, align 8
  %6 = alloca %struct.H5O_loc_t, align 8
  %7 = alloca i32, align 4
  call void @llvm.lifetime.start.p0(i64 16, ptr nonnull %4) #12
  call void @llvm.lifetime.start.p0(i64 24, ptr nonnull %5) #12
  call void @llvm.lifetime.start.p0(i64 24, ptr nonnull %6) #12
  call void @llvm.lifetime.start.p0(i64 4, ptr nonnull %7) #12
  %8 = load i8, ptr @H5D_init_g, align 1, !tbaa !3, !range !7, !noundef !8
  %9 = trunc nuw i8 %8 to i1
  %10 = load i8, ptr @H5_libterm_g, align 1, !range !7
  %11 = trunc nuw i8 %10 to i1
  %12 = xor i1 %11, true
  %13 = select i1 %9, i1 true, i1 %12
  br i1 %13, label %14, label %.thread, !prof !9

14:                                               ; preds = %3
  store ptr %6, ptr %4, align 8, !tbaa !65
  %15 = getelementptr inbounds nuw i8, ptr %4, i64 8
  store ptr %5, ptr %15, align 8, !tbaa !69
  %16 = call i32 @H5G_loc_reset(ptr noundef nonnull %4) #12
  %17 = call i32 @H5G_loc_find(ptr noundef %0, ptr noundef %1, ptr noundef nonnull %4) #12
  %18 = icmp sgt i32 %17, -1
  br i1 %18, label %23, label %19

19:                                               ; preds = %14
  %20 = load i64, ptr @H5E_DATASET_g, align 8, !tbaa !10
  %21 = load i64, ptr @H5E_NOTFOUND_g, align 8, !tbaa !10
  %22 = call i32 (ptr, ptr, i32, i64, i64, ptr, ...) @H5E_printf_stack(ptr noundef nonnull @.str.2, ptr noundef nonnull @__func__.H5D__open_name, i32 noundef 1472, i64 noundef %20, i64 noundef %21, ptr noundef nonnull @.str.55) #12
  br label %.thread

23:                                               ; preds = %14
  %24 = call i32 @H5O_obj_type(ptr noundef nonnull %6, ptr noundef nonnull %7) #12
  %25 = icmp slt i32 %24, 0
  br i1 %25, label %26, label %30

26:                                               ; preds = %23
  %27 = load i64, ptr @H5E_DATASET_g, align 8, !tbaa !10
  %28 = load i64, ptr @H5E_CANTGET_g, align 8, !tbaa !10
  %29 = call i32 (ptr, ptr, i32, i64, i64, ptr, ...) @H5E_printf_stack(ptr noundef nonnull @.str.2, ptr noundef nonnull @__func__.H5D__open_name, i32 noundef 1477, i64 noundef %27, i64 noundef %28, ptr noundef nonnull @.str.56) #12
  br label %43

30:                                               ; preds = %23
  %31 = load i32, ptr %7, align 4, !tbaa !61
  %.not = icmp eq i32 %31, 1
  br i1 %.not, label %36, label %32

32:                                               ; preds = %30
  %33 = load i64, ptr @H5E_DATASET_g, align 8, !tbaa !10
  %34 = load i64, ptr @H5E_BADTYPE_g, align 8, !tbaa !10
  %35 = call i32 (ptr, ptr, i32, i64, i64, ptr, ...) @H5E_printf_stack(ptr noundef nonnull @.str.2, ptr noundef nonnull @__func__.H5D__open_name, i32 noundef 1479, i64 noundef %33, i64 noundef %34, ptr noundef nonnull @.str.57) #12
  br label %43

36:                                               ; preds = %30
  %37 = call ptr @H5D_open(ptr noundef nonnull %4, i64 noundef %2)
  %38 = icmp eq ptr %37, null
  br i1 %38, label %39, label %.thread

39:                                               ; preds = %36
  %40 = load i64, ptr @H5E_DATASET_g, align 8, !tbaa !10
  %41 = load i64, ptr @H5E_CANTINIT_g, align 8, !tbaa !10
  %42 = call i32 (ptr, ptr, i32, i64, i64, ptr, ...) @H5E_printf_stack(ptr noundef nonnull @.str.2, ptr noundef nonnull @__func__.H5D__open_name, i32 noundef 1483, i64 noundef %40, i64 noundef %41, ptr noundef nonnull @.str.58) #12
  br label %43

43:                                               ; preds = %26, %32, %39
  %44 = call i32 @H5G_loc_free(ptr noundef nonnull %4) #12
  %45 = icmp slt i32 %44, 0
  br i1 %45, label %46, label %.thread

46:                                               ; preds = %43
  %47 = load i64, ptr @H5E_DATASET_g, align 8, !tbaa !10
  %48 = load i64, ptr @H5E_CANTRELEASE_g, align 8, !tbaa !10
  %49 = call i32 (ptr, ptr, i32, i64, i64, ptr, ...) @H5E_printf_stack(ptr noundef nonnull @.str.2, ptr noundef nonnull @__func__.H5D__open_name, i32 noundef 1491, i64 noundef %47, i64 noundef %48, ptr noundef nonnull @.str.59) #12
  br label %.thread

.thread:                                          ; preds = %19, %36, %46, %43, %3
  %.0 = phi ptr [ null, %46 ], [ null, %43 ], [ null, %3 ], [ %37, %36 ], [ null, %19 ]
  call void @llvm.lifetime.end.p0(i64 4, ptr nonnull %7) #12
  call void @llvm.lifetime.end.p0(i64 24, ptr nonnull %6) #12
  call void @llvm.lifetime.end.p0(i64 24, ptr nonnull %5) #12
  call void @llvm.lifetime.end.p0(i64 16, ptr nonnull %4) #12
  ret ptr %.0
}